target datalayout = "e-m:e-p270:32:32-p271:32:32-p272:64:64-i64:64-i128:128-f80:128-n8:16:32:64-S128"
target triple = "x86_64-pc-linux-gnu"

%struct.cli_hashtable = type { ptr, i64, i64, i64 }
%struct.cli_element = type { ptr, i64, i64 }
%struct.cli_map = type { %struct.cli_hashtable, %union.anon.0, i32, i32, i32, i32, i32 }
%union.anon.0 = type { ptr }
%struct.cli_map_value = type { ptr, i32 }

@DELETED_KEY = internal constant [1 x i8] zeroinitializer, align 1

; Function Attrs: nounwind uwtable
define void @cli_hashtab_clear(ptr noundef %0) #0 {
  %2 = alloca ptr, align 8
  %3 = alloca i64, align 8
  store ptr %0, ptr %2, align 8
  store i64 0, ptr %3, align 8
  br label %4

4:                                                ; preds = %37, %1
  %5 = load i64, ptr %3, align 8
  %6 = load ptr, ptr %2, align 8
  %7 = getelementptr inbounds %struct.cli_hashtable, ptr %6, i32 0, i32 1
  %8 = load i64, ptr %7, align 8
  %9 = icmp ult i64 %5, %8
  br i1 %9, label %10, label %40

10:                                               ; preds = %4
  %11 = load ptr, ptr %2, align 8
  %12 = getelementptr inbounds %struct.cli_hashtable, ptr %11, i32 0, i32 0
  %13 = load ptr, ptr %12, align 8
  %14 = load i64, ptr %3, align 8
  %15 = getelementptr inbounds %struct.cli_element, ptr %13, i64 %14
  %16 = getelementptr inbounds %struct.cli_element, ptr %15, i32 0, i32 0
  %17 = load ptr, ptr %16, align 8
  %18 = icmp ne ptr %17, null
  br i1 %18, label %19, label %36

19:                                               ; preds = %10
  %20 = load ptr, ptr %2, align 8
  %21 = getelementptr inbounds %struct.cli_hashtable, ptr %20, i32 0, i32 0
  %22 = load ptr, ptr %21, align 8
  %23 = load i64, ptr %3, align 8
  %24 = getelementptr inbounds %struct.cli_element, ptr %22, i64 %23
  %25 = getelementptr inbounds %struct.cli_element, ptr %24, i32 0, i32 0
  %26 = load ptr, ptr %25, align 8
  %27 = icmp ne ptr %26, @DELETED_KEY
  br i1 %27, label %28, label %36

28:                                               ; preds = %19
  %29 = load ptr, ptr %2, align 8
  %30 = getelementptr inbounds %struct.cli_hashtable, ptr %29, i32 0, i32 0
  %31 = load ptr, ptr %30, align 8
  %32 = load i64, ptr %3, align 8
  %33 = getelementptr inbounds %struct.cli_element, ptr %31, i64 %32
  %34 = getelementptr inbounds %struct.cli_element, ptr %33, i32 0, i32 0
  %35 = load ptr, ptr %34, align 8
  call void @free(ptr noundef %35) #7
  br label %36

36:                                               ; preds = %28, %19, %10
  br label %37

37:                                               ; preds = %36
  %38 = load i64, ptr %3, align 8
  %39 = add i64 %38, 1
  store i64 %39, ptr %3, align 8
  br label %4

40:                                               ; preds = %4
  %41 = load ptr, ptr %2, align 8
  %42 = getelementptr inbounds %struct.cli_hashtable, ptr %41, i32 0, i32 0
  %43 = load ptr, ptr %42, align 8
  %44 = icmp ne ptr %43, null
  br i1 %44, label %45, label %53

45:                                               ; preds = %40
  %46 = load ptr, ptr %2, align 8
  %47 = getelementptr inbounds %struct.cli_hashtable, ptr %46, i32 0, i32 0
  %48 = load ptr, ptr %47, align 8
  %49 = load ptr, ptr %2, align 8
  %50 = getelementptr inbounds %struct.cli_hashtable, ptr %49, i32 0, i32 1
  %51 = load i64, ptr %50, align 8
  %52 = mul i64 %51, 24
  call void @llvm.memset.p0.i64(ptr align 8 %48, i8 0, i64 %52, i1 false)
  br label %53

53:                                               ; preds = %45, %40
  %54 = load ptr, ptr %2, align 8
  %55 = getelementptr inbounds %struct.cli_hashtable, ptr %54, i32 0, i32 2
  store i64 0, ptr %55, align 8
  ret void
}

; Function Attrs: nounwind uwtable
define void @cli_hashtab_free(ptr noundef %0) #0 {
  %2 = alloca ptr, align 8
  store ptr %0, ptr %2, align 8
  %3 = load ptr, ptr %2, align 8
  call void @cli_hashtab_clear(ptr noundef %3)
  %4 = load ptr, ptr %2, align 8
  %5 = getelementptr inbounds %struct.cli_hashtable, ptr %4, i32 0, i32 0
  %6 = load ptr, ptr %5, align 8
  call void @free(ptr noundef %6) #7
  %7 = load ptr, ptr %2, align 8
  %8 = getelementptr inbounds %struct.cli_hashtable, ptr %7, i32 0, i32 0
  store ptr null, ptr %8, align 8
  %9 = load ptr, ptr %2, align 8
  %10 = getelementptr inbounds %struct.cli_hashtable, ptr %9, i32 0, i32 1
  store i64 0, ptr %10, align 8
  ret void
}

; Function Attrs: nounwind uwtable
define void @cli_map_delete(ptr noundef %0) #0 {
  %2 = alloca ptr, align 8
  %3 = alloca i32, align 4
  store ptr %0, ptr %2, align 8
  %4 = load ptr, ptr %2, align 8
  %5 = getelementptr inbounds %struct.cli_map, ptr %4, i32 0, i32 0
  call void @cli_hashtab_free(ptr noundef %5)
  %6 = load ptr, ptr %2, align 8
  %7 = getelementptr inbounds %struct.cli_map, ptr %6, i32 0, i32 4
  %8 = load i32, ptr %7, align 8
  %9 = icmp ne i32 %8, 0
  br i1 %9, label %33, label %10

10:                                               ; preds = %1
  store i32 0, ptr %3, align 4
  br label %11

11:                                               ; preds = %26, %10
  %12 = load i32, ptr %3, align 4
  %13 = load ptr, ptr %2, align 8
  %14 = getelementptr inbounds %struct.cli_map, ptr %13, i32 0, i32 2
  %15 = load i32, ptr %14, align 8
  %16 = icmp ult i32 %12, %15
  br i1 %16, label %17, label %29

17:                                               ; preds = %11
  %18 = load ptr, ptr %2, align 8
  %19 = getelementptr inbounds %struct.cli_map, ptr %18, i32 0, i32 1
  %20 = load ptr, ptr %19, align 8
  %21 = load i32, ptr %3, align 4
  %22 = zext i32 %21 to i64
  %23 = getelementptr inbounds %struct.cli_map_value, ptr %20, i64 %22
  %24 = getelementptr inbounds %struct.cli_map_value, ptr %23, i32 0, i32 0
  %25 = load ptr, ptr %24, align 8
  call void @free(ptr noundef %25) #7
  br label %26

26:                                               ; preds = %17
  %27 = load i32, ptr %3, align 4
  %28 = add i32 %27, 1
  store i32 %28, ptr %3, align 4
  br label %11

29:                                               ; preds = %11
  %30 = load ptr, ptr %2, align 8
  %31 = getelementptr inbounds %struct.cli_map, ptr %30, i32 0, i32 1
  %32 = load ptr, ptr %31, align 8
  call void @free(ptr noundef %32) #7
  br label %37

33:                                               ; preds = %1
  %34 = load ptr, ptr %2, align 8
  %35 = getelementptr inbounds %struct.cli_map, ptr %34, i32 0, i32 1
  %36 = load ptr, ptr %35, align 8
  call void @free(ptr noundef %36) #7
  br label %37

37:                                               ; preds = %33, %29
  %38 = load ptr, ptr %2, align 8
  call void @llvm.memset.p0.i64(ptr align 8 %38, i8 0, i64 64, i1 false)
  ret void
}