; Function Attrs: nounwind uwtable
define void @cli_map_delete(ptr nocapture noundef %0) local_unnamed_addr #0 {
  %2 = getelementptr inbounds i8, ptr %0, i64 8
  %3 = load i64, ptr %2, align 8
  %.not18.i.i = icmp eq i64 %3, 0
  br i1 %.not18.i.i, label %._crit_edge.i.i, label %.lr.ph.i.i

.lr.ph.i.i:                                       ; preds = %1, %9
  %4 = phi i64 [ %10, %9 ], [ %3, %1 ]
  %.017.i.i = phi i64 [ %11, %9 ], [ 0, %1 ]
  %5 = load ptr, ptr %0, align 8
  %6 = getelementptr inbounds %struct.cli_element, ptr %5, i64 %.017.i.i
  %7 = load ptr, ptr %6, align 8
  %.not15.i.i = icmp eq ptr %7, null
  %.not16.i.i = icmp eq ptr %7, @DELETED_KEY
  %or.cond.i.i = or i1 %.not15.i.i, %.not16.i.i
  br i1 %or.cond.i.i, label %9, label %8

8:                                                ; preds = %.lr.ph.i.i
  tail call void @free(ptr noundef nonnull %7) #18
  %.pre.i.i = load i64, ptr %2, align 8
  br label %9

9:                                                ; preds = %8, %.lr.ph.i.i
  %10 = phi i64 [ %4, %.lr.ph.i.i ], [ %.pre.i.i, %8 ]
  %11 = add nuw i64 %.017.i.i, 1
  %12 = icmp ult i64 %11, %10
  br i1 %12, label %.lr.ph.i.i, label %._crit_edge.loopexit.i.i

._crit_edge.loopexit.i.i:                         ; preds = %9
  %13 = mul i64 %10, 24
  br label %._crit_edge.i.i

._crit_edge.i.i:                                  ; preds = %._crit_edge.loopexit.i.i, %1
  %.lcssa.i.i = phi i64 [ 0, %1 ], [ %13, %._crit_edge.loopexit.i.i ]
  %14 = load ptr, ptr %0, align 8
  %.not.i.i = icmp eq ptr %14, null
  br i1 %.not.i.i, label %cli_hashtab_free.exit, label %15

15:                                               ; preds = %._crit_edge.i.i
  tail call void @llvm.memset.p0.i64(ptr nonnull align 8 %14, i8 0, i64 %.lcssa.i.i, i1 false)
  %.pre.i = load ptr, ptr %0, align 8
  br label %cli_hashtab_free.exit

cli_hashtab_free.exit:                            ; preds = %._crit_edge.i.i, %15
  %16 = phi ptr [ null, %._crit_edge.i.i ], [ %.pre.i, %15 ]
  %17 = getelementptr inbounds i8, ptr %0, i64 16
  store i64 0, ptr %17, align 8
  tail call void @free(ptr noundef %16) #18
  tail call void @llvm.memset.p0.i64(ptr noundef nonnull align 8 dereferenceable(16) %0, i8 0, i64 16, i1 false)
  %18 = getelementptr inbounds i8, ptr %0, i64 48
  %19 = load i32, ptr %18, align 8
  %.not = icmp eq i32 %19, 0
  br i1 %.not, label %.preheader, label %._crit_edge

.preheader:                                       ; preds = %cli_hashtab_free.exit
  %20 = getelementptr inbounds i8, ptr %0, i64 40
  %21 = load i32, ptr %20, align 8
  %.not10 = icmp eq i32 %21, 0
  br i1 %.not10, label %._crit_edge, label %.lr.ph

.lr.ph:                                           ; preds = %.preheader
  %22 = getelementptr inbounds i8, ptr %0, i64 32
  br label %23

23:                                               ; preds = %.lr.ph, %23
  %indvars.iv = phi i64 [ 0, %.lr.ph ], [ %indvars.iv.next, %23 ]
  %24 = load ptr, ptr %22, align 8
  %25 = getelementptr inbounds %struct.cli_map_value, ptr %24, i64 %indvars.iv
  %26 = load ptr, ptr %25, align 8
  tail call void @free(ptr noundef %26) #18
  %indvars.iv.next = add nuw nsw i64 %indvars.iv, 1
  %27 = load i32, ptr %20, align 8
  %28 = zext i32 %27 to i64
  %29 = icmp ult i64 %indvars.iv.next, %28
  br i1 %29, label %23, label %._crit_edge

._crit_edge:                                      ; preds = %23, %cli_hashtab_free.exit, %.preheader
  %30 = getelementptr inbounds i8, ptr %0, i64 32
  %31 = load ptr, ptr %30, align 8
  tail call void @free(ptr noundef %31) #18
  tail call void @llvm.memset.p0.i64(ptr noundef nonnull align 8 dereferenceable(64) %0, i8 0, i64 64, i1 false)
  ret void
}